target datalayout = "e-m:e-p270:32:32-p271:32:32-p272:64:64-i64:64-i128:128-f80:128-n8:16:32:64-S128"
target triple = "x86_64-pc-linux-gnu"

; Function Attrs: nounwind uwtable
define dso_local i32 @common_file_read_content(ptr noundef %0, ptr noundef %1, ptr noundef %2) #0 {
  %4 = alloca i32, align 4
  %5 = alloca ptr, align 8
  %6 = alloca ptr, align 8
  %7 = alloca ptr, align 8
  %8 = alloca i64, align 8
  %9 = alloca ptr, align 8
  %10 = alloca i32, align 4
  store ptr %0, ptr %5, align 8
  store ptr %1, ptr %6, align 8
  store ptr %2, ptr %7, align 8
  call void @llvm.lifetime.start.p0(i64 8, ptr %8) #6
  call void @llvm.lifetime.start.p0(i64 8, ptr %9) #6
  store ptr null, ptr %9, align 8
  %11 = load ptr, ptr %6, align 8
  %12 = icmp eq ptr %11, null
  br i1 %12, label %16, label %13

13:                                               ; preds = %3
  %14 = load ptr, ptr %7, align 8
  %15 = icmp eq ptr %14, null
  br i1 %15, label %16, label %17

16:                                               ; preds = %13, %3
  store i32 -1, ptr %4, align 4
  store i32 1, ptr %10, align 4
  br label %27

17:                                               ; preds = %13
  %18 = load ptr, ptr %5, align 8
  %19 = call i64 @_read_cg_file(ptr noundef %18, ptr noundef %9)
  store i64 %19, ptr %8, align 8
  %20 = icmp slt i64 %19, 0
  br i1 %20, label %21, label %22

21:                                               ; preds = %17
  store i32 -1, ptr %4, align 4
  store i32 1, ptr %10, align 4
  br label %27

22:                                               ; preds = %17
  %23 = load ptr, ptr %9, align 8
  %24 = load ptr, ptr %6, align 8
  store ptr %23, ptr %24, align 8
  %25 = load i64, ptr %8, align 8
  %26 = load ptr, ptr %7, align 8
  store i64 %25, ptr %26, align 8
  store i32 0, ptr %4, align 4
  store i32 1, ptr %10, align 4
  br label %27

27:                                               ; preds = %22, %21, %16
  call void @llvm.lifetime.end.p0(i64 8, ptr %9) #6
  call void @llvm.lifetime.end.p0(i64 8, ptr %8) #6
  %28 = load i32, ptr %4, align 4
  ret i32 %28
}