; Function Attrs: nounwind uwtable
define dso_local range(i32 -1, 1) i32 @common_file_read_content(ptr noundef %0, ptr noundef writeonly captures(address_is_null) %1, ptr noundef writeonly captures(address_is_null) %2) local_unnamed_addr #0 {
  %4 = alloca ptr, align 8
  call void @llvm.lifetime.start.p0(i64 8, ptr nonnull %4) #8
  store ptr null, ptr %4, align 8
  %5 = icmp eq ptr %1, null
  %6 = icmp eq ptr %2, null
  %or.cond = or i1 %5, %6
  br i1 %or.cond, label %12, label %7

7:                                                ; preds = %3
  %8 = call fastcc i64 @_read_cg_file(ptr noundef %0, ptr noundef %4)
  %9 = icmp slt i64 %8, 0
  br i1 %9, label %12, label %10

10:                                               ; preds = %7
  %11 = load ptr, ptr %4, align 8
  store ptr %11, ptr %1, align 8
  store i64 %8, ptr %2, align 8
  br label %12

12:                                               ; preds = %7, %3, %10
  %.0 = phi i32 [ 0, %10 ], [ -1, %3 ], [ -1, %7 ]
  call void @llvm.lifetime.end.p0(i64 8, ptr nonnull %4) #8
  ret i32 %.0
}